target datalayout = "e-m:e-p270:32:32-p271:32:32-p272:64:64-i64:64-i128:128-f80:128-n8:16:32:64-S128"
target triple = "x86_64-pc-linux-gnu"

%struct.step_record_t = type { i32, ptr, ptr, ptr, i32, ptr, ptr, i32, i32, i32, i32, i16, i16, ptr, i16, i32, ptr, i32, ptr, ptr, ptr, ptr, ptr, ptr, ptr, ptr, ptr, i64, i16, i64, i16, ptr, i16, ptr, i32, i64, i32, ptr, i32, i32, %struct.slurm_step_id_msg, ptr, ptr, ptr, ptr, i16, i64, i64, ptr, ptr, ptr, ptr, ptr, ptr, ptr, ptr }
%struct.slurm_step_id_msg = type { i64, i32, i32, i32 }

@port_resv_table = dso_local global ptr null, align 8
@port_resv_min = dso_local global i32 0, align 4
@port_resv_max = dso_local global i32 0, align 4
@.str.17 = private unnamed_addr constant [23 x i8] c"freed ports %s for %pS\00", align 1

; Function Attrs: nounwind uwtable
define internal void @_resv_port_free(i16 noundef zeroext %0, ptr noundef %1, ptr noundef %2) #0 {
  %4 = alloca i16, align 2
  %5 = alloca ptr, align 8
  %6 = alloca ptr, align 8
  %7 = alloca i32, align 4
  %8 = alloca i32, align 4
  %9 = alloca i32, align 4
  store i16 %0, ptr %4, align 2
  store ptr %1, ptr %5, align 8
  store ptr %2, ptr %6, align 8
  call void @llvm.lifetime.start.p0(i64 4, ptr %7) #6
  call void @llvm.lifetime.start.p0(i64 4, ptr %8) #6
  %10 = load ptr, ptr %5, align 8
  %11 = icmp eq ptr %10, null
  br i1 %11, label %12, label %13

12:                                               ; preds = %3
  store i32 1, ptr %9, align 4
  br label %62

13:                                               ; preds = %3
  store i32 0, ptr %7, align 4
  br label %14

14:                                               ; preds = %58, %13
  %15 = load i32, ptr %7, align 4
  %16 = load i16, ptr %4, align 2
  %17 = zext i16 %16 to i32
  %18 = icmp slt i32 %15, %17
  br i1 %18, label %19, label %61

19:                                               ; preds = %14
  %20 = load ptr, ptr %5, align 8
  %21 = load i32, ptr %7, align 4
  %22 = sext i32 %21 to i64
  %23 = getelementptr inbounds i32, ptr %20, i64 %22
  %24 = load i32, ptr %23, align 4
  %25 = load i32, ptr @port_resv_min, align 4
  %26 = icmp slt i32 %24, %25
  br i1 %26, label %35, label %27

27:                                               ; preds = %19
  %28 = load ptr, ptr %5, align 8
  %29 = load i32, ptr %7, align 4
  %30 = sext i32 %29 to i64
  %31 = getelementptr inbounds i32, ptr %28, i64 %30
  %32 = load i32, ptr %31, align 4
  %33 = load i32, ptr @port_resv_max, align 4
  %34 = icmp sgt i32 %32, %33
  br i1 %34, label %35, label %36

35:                                               ; preds = %27, %19
  br label %58

36:                                               ; preds = %27
  %37 = load ptr, ptr %5, align 8
  %38 = load i32, ptr %7, align 4
  %39 = sext i32 %38 to i64
  %40 = getelementptr inbounds i32, ptr %37, i64 %39
  %41 = load i32, ptr %40, align 4
  %42 = load i32, ptr @port_resv_min, align 4
  %43 = sub nsw i32 %41, %42
  store i32 %43, ptr %8, align 4
  %44 = load ptr, ptr @port_resv_table, align 8
  %45 = load i32, ptr %7, align 4
  %46 = sext i32 %45 to i64
  %47 = getelementptr inbounds ptr, ptr %44, i64 %46
  %48 = load ptr, ptr %47, align 8
  %49 = icmp ne ptr %48, null
  br i1 %49, label %51, label %50

50:                                               ; preds = %36
  br label %58

51:                                               ; preds = %36
  %52 = load ptr, ptr @port_resv_table, align 8
  %53 = load i32, ptr %8, align 4
  %54 = sext i32 %53 to i64
  %55 = getelementptr inbounds ptr, ptr %52, i64 %54
  %56 = load ptr, ptr %55, align 8
  %57 = load ptr, ptr %6, align 8
  call void @bit_and_not(ptr noundef %56, ptr noundef %57)
  br label %58

58:                                               ; preds = %51, %50, %35
  %59 = load i32, ptr %7, align 4
  %60 = add nsw i32 %59, 1
  store i32 %60, ptr %7, align 4
  br label %14, !llvm.loop !19

61:                                               ; preds = %14
  store i32 0, ptr %9, align 4
  br label %62

62:                                               ; preds = %61, %12
  call void @llvm.lifetime.end.p0(i64 4, ptr %8) #6
  call void @llvm.lifetime.end.p0(i64 4, ptr %7) #6
  %63 = load i32, ptr %9, align 4
  switch i32 %63, label %65 [
    i32 0, label %64
    i32 1, label %64
  ]

64:                                               ; preds = %62, %62
  ret void

65:                                               ; preds = %62
  unreachable
}

; Function Attrs: nounwind uwtable
define dso_local void @resv_port_step_free(ptr noundef %0) #0 {
  %2 = alloca ptr, align 8
  store ptr %0, ptr %2, align 8
  %3 = load ptr, ptr %2, align 8
  %4 = getelementptr inbounds nuw %struct.step_record_t, ptr %3, i32 0, i32 31
  %5 = load ptr, ptr %4, align 8
  %6 = icmp eq ptr %5, null
  br i1 %6, label %7, label %8

7:                                                ; preds = %1
  br label %31

8:                                                ; preds = %1
  %9 = load ptr, ptr %2, align 8
  %10 = getelementptr inbounds nuw %struct.step_record_t, ptr %9, i32 0, i32 32
  %11 = load i16, ptr %10, align 8
  %12 = load ptr, ptr %2, align 8
  %13 = getelementptr inbounds nuw %struct.step_record_t, ptr %12, i32 0, i32 31
  %14 = load ptr, ptr %13, align 8
  %15 = load ptr, ptr %2, align 8
  %16 = getelementptr inbounds nuw %struct.step_record_t, ptr %15, i32 0, i32 42
  %17 = load ptr, ptr %16, align 8
  call void @_resv_port_free(i16 noundef zeroext %11, ptr noundef %14, ptr noundef %17)
  %18 = load ptr, ptr %2, align 8
  %19 = getelementptr inbounds nuw %struct.step_record_t, ptr %18, i32 0, i32 31
  call void @slurm_xfree(ptr noundef %19)
  br label %20

20:                                               ; preds = %8
  br label %21

21:                                               ; preds = %20
  %22 = call i32 @get_log_level()
  %23 = icmp sge i32 %22, 6
  br i1 %23, label %24, label %29

24:                                               ; preds = %21
  %25 = load ptr, ptr %2, align 8
  %26 = getelementptr inbounds nuw %struct.step_record_t, ptr %25, i32 0, i32 33
  %27 = load ptr, ptr %26, align 8
  %28 = load ptr, ptr %2, align 8
  call void (i32, ptr, ...) @log_var(i32 noundef 6, ptr noundef @.str.17, ptr noundef %27, ptr noundef %28)
  br label %29

29:                                               ; preds = %24, %21
  br label %30

30:                                               ; preds = %29
  br label %31

31:                                               ; preds = %7, %30
  ret void
}