; Function Attrs: nounwind uwtable
define dso_local void @resv_port_step_free(ptr noundef %0) local_unnamed_addr #0 {
  %2 = getelementptr inbounds nuw i8, ptr %0, i64 216
  %3 = load ptr, ptr %2, align 8
  %4 = icmp eq ptr %3, null
  br i1 %4, label %33, label %5

5:                                                ; preds = %1
  %6 = getelementptr inbounds nuw i8, ptr %0, i64 224
  %7 = load i16, ptr %6, align 8
  %8 = getelementptr inbounds nuw i8, ptr %0, i64 312
  %9 = load ptr, ptr %8, align 8
  %.not17.i = icmp eq i16 %7, 0
  br i1 %.not17.i, label %_resv_port_free.exit, label %.lr.ph.preheader.i

.lr.ph.preheader.i:                               ; preds = %5
  %wide.trip.count.i = zext i16 %7 to i64
  %.pre19.i = load i32, ptr @port_resv_min, align 4
  %.pre21.i = load i32, ptr @port_resv_max, align 4
  br label %.lr.ph.i

.lr.ph.i:                                         ; preds = %25, %.lr.ph.preheader.i
  %10 = phi i32 [ %.pre21.i, %.lr.ph.preheader.i ], [ %26, %25 ]
  %11 = phi i32 [ %.pre19.i, %.lr.ph.preheader.i ], [ %27, %25 ]
  %indvars.iv.i = phi i64 [ 0, %.lr.ph.preheader.i ], [ %indvars.iv.next.i, %25 ]
  %12 = getelementptr inbounds nuw i32, ptr %3, i64 %indvars.iv.i
  %13 = load i32, ptr %12, align 4
  %14 = icmp slt i32 %13, %11
  %15 = icmp sgt i32 %13, %10
  %or.cond.i = select i1 %14, i1 true, i1 %15
  br i1 %or.cond.i, label %25, label %16

16:                                               ; preds = %.lr.ph.i
  %17 = load ptr, ptr @port_resv_table, align 8
  %18 = getelementptr inbounds nuw ptr, ptr %17, i64 %indvars.iv.i
  %19 = load ptr, ptr %18, align 8
  %.not.i = icmp eq ptr %19, null
  br i1 %.not.i, label %25, label %20

20:                                               ; preds = %16
  %21 = sub nsw i32 %13, %11
  %22 = sext i32 %21 to i64
  %23 = getelementptr inbounds ptr, ptr %17, i64 %22
  %24 = load ptr, ptr %23, align 8
  tail call void @bit_and_not(ptr noundef %24, ptr noundef %9) #8
  %.pre.i = load i32, ptr @port_resv_min, align 4
  %.pre20.i = load i32, ptr @port_resv_max, align 4
  br label %25

25:                                               ; preds = %20, %16, %.lr.ph.i
  %26 = phi i32 [ %10, %16 ], [ %10, %.lr.ph.i ], [ %.pre20.i, %20 ]
  %27 = phi i32 [ %11, %16 ], [ %11, %.lr.ph.i ], [ %.pre.i, %20 ]
  %indvars.iv.next.i = add nuw nsw i64 %indvars.iv.i, 1
  %exitcond.not.i = icmp eq i64 %indvars.iv.next.i, %wide.trip.count.i
  br i1 %exitcond.not.i, label %_resv_port_free.exit, label %.lr.ph.i, !llvm.loop !20

_resv_port_free.exit:                             ; preds = %25, %5
  tail call void @slurm_xfree(ptr noundef nonnull %2) #8
  %28 = tail call i32 @get_log_level() #8
  %29 = icmp sgt i32 %28, 5
  br i1 %29, label %30, label %33

30:                                               ; preds = %_resv_port_free.exit
  %31 = getelementptr inbounds nuw i8, ptr %0, i64 232
  %32 = load ptr, ptr %31, align 8
  tail call void (i32, ptr, ...) @log_var(i32 noundef 6, ptr noundef nonnull @.str.17, ptr noundef %32, ptr noundef nonnull %0) #8
  br label %33

33:                                               ; preds = %30, %_resv_port_free.exit, %1
  ret void
}